(dp0
Vengine
p1
Vpdflatex
p2
sVpackages
p3
c__builtin__
set
p4
((lp5
Vgraphicx
p6
aVhyperref
p7
aVsubfigure
p8
aVamsmath
p9
aVbabel
p10
aVtheorem
p11
aVurl
p12
aVlatexsym
p13
aVIEEEtsup
p14
aVamsfonts
p15
aVinputenc
p16
aVcite
p17
aVcolor
p18
aVamssymb
p19
atp20
Rp21
sVfiles_with_guttermarks
p22
g4
((lp23
S'Relatorio.tex'
p24
atp25
Rp26
sVsynctex
p27
I01
s.